(i__main__
graph
p0
(dp1
S'no_of_vertices'
p2
I0
sS'vertices'
p3
(dp4
S'BNK'
p5
(i__main__
node
p6
(dp7
S'plane_array'
p8
(lp9
(i__main__
plane
p10
(dp11
S'start_date'
p12
S'1/3/2018'
p13
sS'start_time'
p14
I180
sS'plane_no'
p15
I4
sS'seating_matrix'
p16
(dp17
cdatetime
datetime
p18
(S'\x07\xe3\x03\x01\x04\x00\x00\x00\x00\x00'
p19
tp20
Rp21
(lp22
(lp23
I0
aI0
aI0
aI0
aa(lp24
I0
aI0
aI1
aI1
aa(lp25
I0
aI0
aI0
aI0
aa(lp26
I0
aI0
aI0
aI0
aa(lp27
I0
aI0
aI0
aI0
aa(lp28
I1
aI0
aI0
aI0
aa(lp29
I0
aI0
aI0
aI0
aa(lp30
I0
aI0
aI0
aI0
aa(lp31
I0
aI0
aI0
aI0
aa(lp32
I0
aI0
aI0
aI0
aa(lp33
I0
aI0
aI0
aI0
aa(lp34
I0
aI0
aI0
aI0
aa(lp35
I0
aI0
aI0
aI0
aa(lp36
I0
aI0
aI0
aI1
aa(lp37
I1
aI0
aI0
aI1
aasg18
(S'\x07\xe2\x05\x01\x03\x00\x00\x00\x00\x00'
p38
tp39
Rp40
(lp41
(lp42
I0
aI0
aI0
aI0
aa(lp43
I0
aI0
aI0
aI0
aa(lp44
I0
aI0
aI0
aI0
aa(lp45
I0
aI0
aI0
aI0
aa(lp46
I0
aI0
aI0
aI0
aa(lp47
I0
aI0
aI0
aI0
aa(lp48
I0
aI0
aI0
aI0
aa(lp49
I2
aI1
aI1
aI1
aa(lp50
I0
aI0
aI0
aI0
aa(lp51
I0
aI0
aI0
aI0
aa(lp52
I0
aI0
aI0
aI0
aa(lp53
I0
aI0
aI0
aI0
aa(lp54
I0
aI0
aI0
aI0
aa(lp55
I0
aI0
aI0
aI0
aa(lp56
I0
aI0
aI0
aI0
aasg18
(S'\x07\xe3\x03\x02\x01\x00\x00\x00\x00\x00'
p57
tp58
Rp59
(lp60
(lp61
I0
aI0
aI0
aI0
aa(lp62
I0
aI0
aI0
aI0
aa(lp63
I0
aI0
aI0
aI0
aa(lp64
I0
aI0
aI0
aI0
aa(lp65
I0
aI0
aI0
aI0
aa(lp66
I0
aI0
aI0
aI0
aa(lp67
I0
aI0
aI0
aI0
aa(lp68
I0
aI0
aI0
aI0
aa(lp69
I0
aI0
aI0
aI0
aa(lp70
I0
aI0
aI0
aI0
aa(lp71
I0
aI0
aI0
aI0
aa(lp72
I0
aI0
aI0
aI0
aa(lp73
I0
aI0
aI0
aI0
aa(lp74
I0
aI0
aI0
aI0
aa(lp75
I0
aI0
aI0
aI1
aasg18
(S'\x07\xe3\x03\x01\x03\x00\x00\x00\x00\x00'
p76
tp77
Rp78
(lp79
(lp80
I0
aI0
aI0
aI0
aa(lp81
I0
aI0
aI0
aI0
aa(lp82
I0
aI0
aI0
aI0
aa(lp83
I0
aI0
aI0
aI0
aa(lp84
I0
aI1
aI0
aI0
aa(lp85
I0
aI0
aI2
aI0
aa(lp86
I0
aI0
aI0
aI0
aa(lp87
I0
aI0
aI0
aI2
aa(lp88
I0
aI0
aI0
aI0
aa(lp89
I0
aI0
aI0
aI0
aa(lp90
I2
aI0
aI0
aI0
aa(lp91
I0
aI0
aI0
aI0
aa(lp92
I0
aI0
aI0
aI0
aa(lp93
I0
aI0
aI0
aI0
aa(lp94
I1
aI0
aI0
aI2
aasg18
(S'\x07\xe2\x05\x01\x04\x00\x00\x00\x00\x00'
p95
tp96
Rp97
(lp98
(lp99
I0
aI0
aI0
aI0
aa(lp100
I0
aI0
aI0
aI0
aa(lp101
I0
aI0
aI0
aI0
aa(lp102
I0
aI0
aI0
aI0
aa(lp103
I0
aI0
aI0
aI0
aa(lp104
I0
aI0
aI0
aI0
aa(lp105
I1
aI1
aI1
aI1
aa(lp106
I0
aI0
aI0
aI0
aa(lp107
I0
aI0
aI0
aI0
aa(lp108
I0
aI0
aI0
aI0
aa(lp109
I0
aI0
aI0
aI0
aa(lp110
I0
aI0
aI0
aI0
aa(lp111
I0
aI0
aI0
aI0
aa(lp112
I0
aI0
aI0
aI0
aa(lp113
I0
aI0
aI0
aI0
aassS'company_name'
p114
S'EM'
p115
sS'duration'
p116
I180
sS'route'
p117
(lp118
S'AMD'
p119
ag5
aS'COH'
p120
asba(i__main__
plane
p121
(dp122
g12
g13
sg14
I180
sg15
I7
sg16
(dp123
sg114
S'JA'
p124
sg116
I120
sg117
(lp125
g5
aS'DNK'
p126
asba(i__main__
plane
p127
(dp128
g12
g13
sg14
I240
sg15
I9
sg16
(dp129
sg114
g124
sg116
I300
sg117
(lp130
g119
ag5
ag126
ag115
ag120
asba(i__main__
plane
p131
(dp132
g12
g13
sg14
I180
sg15
I1
sg16
(dp133
sg114
g115
sg116
I240
sg117
(lp134
g119
ag5
ag126
ag120
asba(i__main__
plane
p135
(dp136
g12
g13
sg14
I180
sg15
I2
sg16
(dp137
sg114
S'AI'
p138
sg116
I300
sg117
(lp139
g119
ag5
ag126
ag115
ag120
asbasS'adj_node'
p140
(dp141
g120
I60
sg119
I60
sg126
I60
ssS'node_name'
p142
g5
sbsg120
(i__main__
node
p143
(dp144
g8
(lp145
g10
a(i__main__
plane
p146
(dp147
g12
g13
sg14
I180
sg15
I5
sg16
(dp148
sg114
g138
sg116
I120
sg117
(lp149
g119
ag120
asba(i__main__
plane
p150
(dp151
g12
g13
sg14
I180
sg15
I6
sg16
(dp152
sg114
g124
sg116
I120
sg117
(lp153
g126
ag120
asba(i__main__
plane
p154
(dp155
g12
g13
sg14
I180
sg15
I8
sg16
(dp156
sg114
g138
sg116
I120
sg117
(lp157
g115
ag120
asbag127
ag131
ag135
a(i__main__
plane
p158
(dp159
g12
g13
sg14
I300
sg15
I3
sg16
(dp160
sg114
g124
sg116
I180
sg117
(lp161
g126
ag115
ag120
asbasg140
(dp162
g115
I60
sg5
I60
sg119
I60
sg126
I60
ssg142
g120
sbsg115
(i__main__
node
p163
(dp164
g8
(lp165
g154
ag127
ag135
ag158
asg140
(dp166
g120
I60
sg126
I60
ssg142
g115
sbsg119
(i__main__
node
p167
(dp168
g8
(lp169
g10
ag146
ag127
ag131
ag135
asg140
(dp170
g5
I60
sg120
I60
ssg142
g119
sbsg126
(i__main__
node
p171
(dp172
g8
(lp173
g150
ag121
ag127
ag131
ag135
ag158
asg140
(dp174
g115
I60
sg120
I60
sg5
I60
ssg142
g126
sbssb.